target datalayout = "e-m:e-p270:32:32-p271:32:32-p272:64:64-i64:64-i128:128-f80:128-n8:16:32:64-S128"
target triple = "x86_64-pc-linux-gnu"

%struct.Aig_Man_t_ = type { ptr, ptr, ptr, ptr, ptr, ptr, ptr, %struct.Aig_Obj_t_, i32, i32, i32, i32, i32, i32, [7 x i32], i32, ptr, i32, ptr, i32, ptr, i32, i32, i32, ptr, i32, i32, i32, i32, i32, ptr, ptr, i32, ptr, ptr, i32, ptr, ptr, i32, i32, i32, ptr, ptr, ptr, ptr, ptr, ptr, ptr, ptr, ptr, ptr, ptr, ptr, ptr, ptr, i32, ptr, ptr, ptr, ptr, i32, i64, i64, i64, ptr, ptr }
%struct.Aig_Obj_t_ = type { %union.anon, ptr, ptr, i64, i32, i32, %union.anon.0 }
%union.anon = type { ptr }
%union.anon.0 = type { ptr }
%struct.Cnf_Dat_t_ = type { ptr, i32, i32, i32, ptr, ptr, ptr, ptr, ptr, ptr }
%struct.Vec_Ptr_t_ = type { i32, i32, ptr }

; Function Attrs: inlinehint nounwind uwtable
define internal ptr @Vec_PtrEntry(ptr noundef %0, i32 noundef %1) #5 {
  %3 = alloca ptr, align 8
  %4 = alloca i32, align 4
  store ptr %0, ptr %3, align 8, !tbaa !50
  store i32 %1, ptr %4, align 4, !tbaa !20
  %5 = load ptr, ptr %3, align 8, !tbaa !50
  %6 = getelementptr inbounds nuw %struct.Vec_Ptr_t_, ptr %5, i32 0, i32 2
  %7 = load ptr, ptr %6, align 8, !tbaa !53
  %8 = load i32, ptr %4, align 4, !tbaa !20
  %9 = sext i32 %8 to i64
  %10 = getelementptr inbounds ptr, ptr %7, i64 %9
  %11 = load ptr, ptr %10, align 8, !tbaa !54
  ret ptr %11
}

; Function Attrs: inlinehint nounwind uwtable
define internal i32 @Vec_PtrSize(ptr noundef %0) #5 {
  %2 = alloca ptr, align 8
  store ptr %0, ptr %2, align 8, !tbaa !50
  %3 = load ptr, ptr %2, align 8, !tbaa !50
  %4 = getelementptr inbounds nuw %struct.Vec_Ptr_t_, ptr %3, i32 0, i32 1
  %5 = load i32, ptr %4, align 4, !tbaa !51
  ret i32 %5
}

; Function Attrs: nounwind uwtable
define void @Cnf_DataLift(ptr noundef %0, i32 noundef %1) #0 {
  %3 = alloca ptr, align 8
  %4 = alloca i32, align 4
  %5 = alloca ptr, align 8
  %6 = alloca i32, align 4
  store ptr %0, ptr %3, align 8, !tbaa !32
  store i32 %1, ptr %4, align 4, !tbaa !20
  call void @llvm.lifetime.start.p0(i64 8, ptr %5) #11
  call void @llvm.lifetime.start.p0(i64 4, ptr %6) #11
  %7 = load ptr, ptr %3, align 8, !tbaa !32
  %8 = getelementptr inbounds nuw %struct.Cnf_Dat_t_, ptr %7, i32 0, i32 0
  %9 = load ptr, ptr %8, align 8, !tbaa !55
  %10 = icmp ne ptr %9, null
  br i1 %10, label %11, label %64

11:                                               ; preds = %2
  store i32 0, ptr %6, align 4, !tbaa !20
  br label %12

12:                                               ; preds = %60, %11
  %13 = load i32, ptr %6, align 4, !tbaa !20
  %14 = load ptr, ptr %3, align 8, !tbaa !32
  %15 = getelementptr inbounds nuw %struct.Cnf_Dat_t_, ptr %14, i32 0, i32 0
  %16 = load ptr, ptr %15, align 8, !tbaa !55
  %17 = getelementptr inbounds nuw %struct.Aig_Man_t_, ptr %16, i32 0, i32 4
  %18 = load ptr, ptr %17, align 8, !tbaa !60
  %19 = call i32 @Vec_PtrSize(ptr noundef %18)
  %20 = icmp slt i32 %13, %19
  br i1 %20, label %21, label %29

21:                                               ; preds = %12
  %22 = load ptr, ptr %3, align 8, !tbaa !32
  %23 = getelementptr inbounds nuw %struct.Cnf_Dat_t_, ptr %22, i32 0, i32 0
  %24 = load ptr, ptr %23, align 8, !tbaa !55
  %25 = getelementptr inbounds nuw %struct.Aig_Man_t_, ptr %24, i32 0, i32 4
  %26 = load ptr, ptr %25, align 8, !tbaa !60
  %27 = load i32, ptr %6, align 4, !tbaa !20
  %28 = call ptr @Vec_PtrEntry(ptr noundef %26, i32 noundef %27)
  store ptr %28, ptr %5, align 8, !tbaa !44
  br label %29

29:                                               ; preds = %21, %12
  %30 = phi i1 [ false, %12 ], [ true, %21 ]
  br i1 %30, label %31, label %63

31:                                               ; preds = %29
  %32 = load ptr, ptr %5, align 8, !tbaa !44
  %33 = icmp eq ptr %32, null
  br i1 %33, label %34, label %35

34:                                               ; preds = %31
  br label %59

35:                                               ; preds = %31
  %36 = load ptr, ptr %3, align 8, !tbaa !32
  %37 = getelementptr inbounds nuw %struct.Cnf_Dat_t_, ptr %36, i32 0, i32 5
  %38 = load ptr, ptr %37, align 8, !tbaa !45
  %39 = load ptr, ptr %5, align 8, !tbaa !44
  %40 = getelementptr inbounds nuw %struct.Aig_Obj_t_, ptr %39, i32 0, i32 5
  %41 = load i32, ptr %40, align 4, !tbaa !48
  %42 = sext i32 %41 to i64
  %43 = getelementptr inbounds i32, ptr %38, i64 %42
  %44 = load i32, ptr %43, align 4, !tbaa !20
  %45 = icmp sge i32 %44, 0
  br i1 %45, label %46, label %58

46:                                               ; preds = %35
  %47 = load i32, ptr %4, align 4, !tbaa !20
  %48 = load ptr, ptr %3, align 8, !tbaa !32
  %49 = getelementptr inbounds nuw %struct.Cnf_Dat_t_, ptr %48, i32 0, i32 5
  %50 = load ptr, ptr %49, align 8, !tbaa !45
  %51 = load ptr, ptr %5, align 8, !tbaa !44
  %52 = getelementptr inbounds nuw %struct.Aig_Obj_t_, ptr %51, i32 0, i32 5
  %53 = load i32, ptr %52, align 4, !tbaa !48
  %54 = sext i32 %53 to i64
  %55 = getelementptr inbounds i32, ptr %50, i64 %54
  %56 = load i32, ptr %55, align 4, !tbaa !20
  %57 = add nsw i32 %56, %47
  store i32 %57, ptr %55, align 4, !tbaa !20
  br label %58

58:                                               ; preds = %46, %35
  br label %59

59:                                               ; preds = %58, %34
  br label %60

60:                                               ; preds = %59
  %61 = load i32, ptr %6, align 4, !tbaa !20
  %62 = add nsw i32 %61, 1
  store i32 %62, ptr %6, align 4, !tbaa !20
  br label %12, !llvm.loop !70

63:                                               ; preds = %29
  br label %64

64:                                               ; preds = %63, %2
  store i32 0, ptr %6, align 4, !tbaa !20
  br label %65

65:                                               ; preds = %84, %64
  %66 = load i32, ptr %6, align 4, !tbaa !20
  %67 = load ptr, ptr %3, align 8, !tbaa !32
  %68 = getelementptr inbounds nuw %struct.Cnf_Dat_t_, ptr %67, i32 0, i32 2
  %69 = load i32, ptr %68, align 4, !tbaa !58
  %70 = icmp slt i32 %66, %69
  br i1 %70, label %71, label %87

71:                                               ; preds = %65
  %72 = load i32, ptr %4, align 4, !tbaa !20
  %73 = mul nsw i32 2, %72
  %74 = load ptr, ptr %3, align 8, !tbaa !32
  %75 = getelementptr inbounds nuw %struct.Cnf_Dat_t_, ptr %74, i32 0, i32 4
  %76 = load ptr, ptr %75, align 8, !tbaa !59
  %77 = getelementptr inbounds ptr, ptr %76, i64 0
  %78 = load ptr, ptr %77, align 8, !tbaa !18
  %79 = load i32, ptr %6, align 4, !tbaa !20
  %80 = sext i32 %79 to i64
  %81 = getelementptr inbounds i32, ptr %78, i64 %80
  %82 = load i32, ptr %81, align 4, !tbaa !20
  %83 = add nsw i32 %82, %73
  store i32 %83, ptr %81, align 4, !tbaa !20
  br label %84

84:                                               ; preds = %71
  %85 = load i32, ptr %6, align 4, !tbaa !20
  %86 = add nsw i32 %85, 1
  store i32 %86, ptr %6, align 4, !tbaa !20
  br label %65, !llvm.loop !71

87:                                               ; preds = %65
  call void @llvm.lifetime.end.p0(i64 4, ptr %6) #11
  call void @llvm.lifetime.end.p0(i64 8, ptr %5) #11
  ret void
}