; Function Attrs: nofree norecurse nosync nounwind memory(readwrite, inaccessiblemem: none) uwtable
define void @Cnf_DataLift(ptr noundef readonly captures(none) %0, i32 noundef %1) local_unnamed_addr #10 {
  %3 = load ptr, ptr %0, align 8, !tbaa !47
  %.not = icmp eq ptr %3, null
  br i1 %.not, label %.critedge, label %.preheader

.preheader:                                       ; preds = %2
  %4 = getelementptr inbounds nuw i8, ptr %3, i64 32
  %5 = load ptr, ptr %4, align 8, !tbaa !52
  %6 = getelementptr i8, ptr %5, i64 4
  %.val20 = load i32, ptr %6, align 4, !tbaa !38
  %7 = icmp sgt i32 %.val20, 0
  br i1 %7, label %.lr.ph, label %.critedge

.lr.ph:                                           ; preds = %.preheader
  %8 = getelementptr i8, ptr %5, i64 8
  %.val19 = load ptr, ptr %8, align 8, !tbaa !40
  %9 = getelementptr inbounds nuw i8, ptr %0, i64 32
  br label %10

10:                                               ; preds = %.lr.ph, %24
  %.val28 = phi i32 [ %.val20, %.lr.ph ], [ %.val, %24 ]
  %indvars.iv = phi i64 [ 0, %.lr.ph ], [ %indvars.iv.next, %24 ]
  %11 = getelementptr inbounds nuw ptr, ptr %.val19, i64 %indvars.iv
  %12 = load ptr, ptr %11, align 8, !tbaa !41
  %13 = icmp eq ptr %12, null
  br i1 %13, label %24, label %14

14:                                               ; preds = %10
  %15 = load ptr, ptr %9, align 8, !tbaa !42
  %16 = getelementptr inbounds nuw i8, ptr %12, i64 36
  %17 = load i32, ptr %16, align 4, !tbaa !45
  %18 = sext i32 %17 to i64
  %19 = getelementptr inbounds i32, ptr %15, i64 %18
  %20 = load i32, ptr %19, align 4, !tbaa !28
  %21 = icmp sgt i32 %20, -1
  br i1 %21, label %22, label %24

22:                                               ; preds = %14
  %23 = add nsw i32 %20, %1
  store i32 %23, ptr %19, align 4, !tbaa !28
  %.val.pre = load i32, ptr %6, align 4, !tbaa !38
  br label %24

24:                                               ; preds = %10, %22, %14
  %.val = phi i32 [ %.val28, %10 ], [ %.val.pre, %22 ], [ %.val28, %14 ]
  %indvars.iv.next = add nuw nsw i64 %indvars.iv, 1
  %25 = sext i32 %.val to i64
  %26 = icmp slt i64 %indvars.iv.next, %25
  br i1 %26, label %10, label %.critedge, !llvm.loop !61

.critedge:                                        ; preds = %24, %.preheader, %2
  %27 = getelementptr inbounds nuw i8, ptr %0, i64 12
  %28 = load i32, ptr %27, align 4, !tbaa !50
  %29 = icmp sgt i32 %28, 0
  br i1 %29, label %.lr.ph23, label %._crit_edge

.lr.ph23:                                         ; preds = %.critedge
  %30 = shl nsw i32 %1, 1
  %31 = getelementptr inbounds nuw i8, ptr %0, i64 24
  %32 = load ptr, ptr %31, align 8, !tbaa !51
  %33 = load ptr, ptr %32, align 8, !tbaa !16
  br label %34

34:                                               ; preds = %.lr.ph23, %34
  %indvars.iv25 = phi i64 [ 0, %.lr.ph23 ], [ %indvars.iv.next26, %34 ]
  %35 = getelementptr inbounds nuw i32, ptr %33, i64 %indvars.iv25
  %36 = load i32, ptr %35, align 4, !tbaa !28
  %37 = add nsw i32 %36, %30
  store i32 %37, ptr %35, align 4, !tbaa !28
  %indvars.iv.next26 = add nuw nsw i64 %indvars.iv25, 1
  %38 = load i32, ptr %27, align 4, !tbaa !50
  %39 = sext i32 %38 to i64
  %40 = icmp slt i64 %indvars.iv.next26, %39
  br i1 %40, label %34, label %._crit_edge, !llvm.loop !62

._crit_edge:                                      ; preds = %34, %.critedge
  ret void
}